; ModuleID = 'source-C-CXX/23/773.c'
source_filename = "source-C-CXX/23/773.c"
target datalayout = "e-m:e-p270:32:32-p271:32:32-p272:64:64-i64:64-f80:128-n8:16:32:64-S128"
target triple = "x86_64-pc-linux-gnu"

%struct._IO_FILE = type { i32, i8*, i8*, i8*, i8*, i8*, i8*, i8*, i8*, i8*, i8*, i8*, %struct._IO_marker*, %struct._IO_FILE*, i32, i32, i64, i16, i8, [1 x i8], i8*, i64, %struct._IO_codecvt*, %struct._IO_wide_data*, %struct._IO_FILE*, i8*, i64, i32, [20 x i8] }
%struct._IO_marker = type opaque
%struct._IO_codecvt = type opaque
%struct._IO_wide_data = type opaque

@.str.1 = private unnamed_addr constant [3 x i8] c"%s\00", align 1
@stdin = external local_unnamed_addr global %struct._IO_FILE*, align 8

; Function Attrs: nofree nounwind sspstrong uwtable
define dso_local i32 @main() local_unnamed_addr #0 {
  %1 = alloca [100 x i8], align 16
  %2 = alloca [100 x i8], align 16
  %3 = alloca [200 x i8], align 16
  %4 = getelementptr inbounds [100 x i8], [100 x i8]* %1, i64 0, i64 0
  call void @llvm.lifetime.start.p0i8(i64 100, i8* nonnull %4) #6
  %5 = getelementptr inbounds [100 x i8], [100 x i8]* %2, i64 0, i64 0
  call void @llvm.lifetime.start.p0i8(i64 100, i8* nonnull %5) #6
  %6 = getelementptr inbounds [200 x i8], [200 x i8]* %3, i64 0, i64 0
  call void @llvm.lifetime.start.p0i8(i64 200, i8* nonnull %6) #6
  br label %7

7:                                                ; preds = %0, %35
  %8 = phi i32 [ 100000, %0 ], [ %31, %35 ]
  %9 = phi i32 [ -1, %0 ], [ %36, %35 ]
  br label %10

10:                                               ; preds = %7, %17
  %11 = phi i64 [ 0, %7 ], [ %18, %17 ]
  %12 = load %struct._IO_FILE*, %struct._IO_FILE** @stdin, align 8, !tbaa !5
  %13 = call i32 @getc(%struct._IO_FILE* %12) #6
  %14 = trunc i32 %13 to i8
  %15 = getelementptr inbounds [200 x i8], [200 x i8]* %3, i64 0, i64 %11
  store i8 %14, i8* %15, align 1, !tbaa !9
  %16 = shl i32 %13, 24
  switch i32 %16, label %17 [
    i32 536870912, label %20
    i32 167772160, label %19
  ]

17:                                               ; preds = %10
  %18 = add nuw i64 %11, 1
  br label %10

19:                                               ; preds = %10
  br label %20

20:                                               ; preds = %10, %19
  %21 = phi i1 [ true, %19 ], [ false, %10 ]
  %22 = and i64 %11, 4294967295
  %23 = getelementptr inbounds [200 x i8], [200 x i8]* %3, i64 0, i64 %22
  store i8 0, i8* %23, align 1, !tbaa !9
  %24 = call i64 @strlen(i8* noundef nonnull %6) #7
  %25 = zext i32 %8 to i64
  %26 = icmp ult i64 %24, %25
  %27 = trunc i64 %24 to i32
  br i1 %26, label %28, label %30

28:                                               ; preds = %20
  %29 = call i8* @strcpy(i8* noundef nonnull %4, i8* noundef nonnull %6) #6
  br label %30

30:                                               ; preds = %20, %28
  %31 = phi i32 [ %27, %28 ], [ %8, %20 ]
  %32 = icmp slt i32 %9, %27
  br i1 %32, label %33, label %35

33:                                               ; preds = %30
  %34 = call i8* @strcpy(i8* noundef nonnull %5, i8* noundef nonnull %6) #6
  br label %35

35:                                               ; preds = %33, %30
  %36 = phi i32 [ %27, %33 ], [ %9, %30 ]
  br i1 %21, label %37, label %7, !llvm.loop !10

37:                                               ; preds = %35
  %38 = call i32 @puts(i8* nonnull %5)
  %39 = call i32 (i8*, ...) @printf(i8* nonnull dereferenceable(1) getelementptr inbounds ([3 x i8], [3 x i8]* @.str.1, i64 0, i64 0), i8* nonnull %4)
  call void @llvm.lifetime.end.p0i8(i64 200, i8* nonnull %6) #6
  call void @llvm.lifetime.end.p0i8(i64 100, i8* nonnull %5) #6
  call void @llvm.lifetime.end.p0i8(i64 100, i8* nonnull %4) #6
  ret i32 0
}

; Function Attrs: argmemonly mustprogress nofree nosync nounwind willreturn
declare void @llvm.lifetime.start.p0i8(i64 immarg, i8* nocapture) #1

; Function Attrs: argmemonly mustprogress nofree nounwind readonly willreturn
declare i64 @strlen(i8* nocapture) local_unnamed_addr #2

; Function Attrs: argmemonly mustprogress nofree nounwind willreturn
declare i8* @strcpy(i8* noalias returned writeonly, i8* noalias nocapture readonly) local_unnamed_addr #3

; Function Attrs: argmemonly mustprogress nofree nosync nounwind willreturn
declare void @llvm.lifetime.end.p0i8(i64 immarg, i8* nocapture) #1

; Function Attrs: nofree nounwind
declare noundef i32 @printf(i8* nocapture noundef readonly, ...) local_unnamed_addr #4

; Function Attrs: nofree nounwind
declare noundef i32 @getc(%struct._IO_FILE* nocapture noundef) local_unnamed_addr #4

; Function Attrs: nofree nounwind
declare noundef i32 @puts(i8* nocapture noundef readonly) local_unnamed_addr #5


!llvm.module.flags = !{!0, !1, !2, !3}
!llvm.ident = !{!4}

!0 = !{i32 1, !"wchar_size", i32 4}
!1 = !{i32 7, !"PIC Level", i32 2}
!2 = !{i32 7, !"PIE Level", i32 2}
!3 = !{i32 7, !"uwtable", i32 1}
!4 = !{!"clang version 13.0.0"}
!5 = !{!6, !6, i64 0}
!6 = !{!"any pointer", !7, i64 0}
!7 = !{!"omnipotent char", !8, i64 0}
!8 = !{!"Simple C/C++ TBAA"}
!9 = !{!7, !7, i64 0}
!10 = distinct !{!10, !11}
!11 = !{!"llvm.loop.mustprogress"}
